target datalayout = "e-m:e-p270:32:32-p271:32:32-p272:64:64-i64:64-i128:128-f80:128-n8:16:32:64-S128"
target triple = "x86_64-pc-linux-gnu"

; Function Attrs: nounwind uwtable
define dso_local i32 @strbuf_expand_step(ptr noundef %0, ptr noundef %1) #0 {
  %3 = alloca i32, align 4
  %4 = alloca ptr, align 8
  %5 = alloca ptr, align 8
  %6 = alloca ptr, align 8
  %7 = alloca ptr, align 8
  %8 = alloca i32, align 4
  store ptr %0, ptr %4, align 8, !tbaa !18
  store ptr %1, ptr %5, align 8, !tbaa !14
  call void @llvm.lifetime.start.p0(i64 8, ptr %6) #11
  %9 = load ptr, ptr %5, align 8, !tbaa !14
  %10 = load ptr, ptr %9, align 8, !tbaa !4
  store ptr %10, ptr %6, align 8, !tbaa !4
  call void @llvm.lifetime.start.p0(i64 8, ptr %7) #11
  %11 = load ptr, ptr %6, align 8, !tbaa !4
  %12 = call ptr @strchrnul(ptr noundef %11, i32 noundef 37) #13
  store ptr %12, ptr %7, align 8, !tbaa !4
  %13 = load ptr, ptr %4, align 8, !tbaa !18
  %14 = load ptr, ptr %6, align 8, !tbaa !4
  %15 = load ptr, ptr %7, align 8, !tbaa !4
  %16 = load ptr, ptr %6, align 8, !tbaa !4
  %17 = ptrtoint ptr %15 to i64
  %18 = ptrtoint ptr %16 to i64
  %19 = sub i64 %17, %18
  call void @strbuf_add(ptr noundef %13, ptr noundef %14, i64 noundef %19)
  %20 = load ptr, ptr %7, align 8, !tbaa !4
  %21 = load i8, ptr %20, align 1, !tbaa !9
  %22 = icmp ne i8 %21, 0
  br i1 %22, label %24, label %23

23:                                               ; preds = %2
  store i32 0, ptr %3, align 4
  store i32 1, ptr %8, align 4
  br label %28

24:                                               ; preds = %2
  %25 = load ptr, ptr %7, align 8, !tbaa !4
  %26 = getelementptr inbounds i8, ptr %25, i64 1
  %27 = load ptr, ptr %5, align 8, !tbaa !14
  store ptr %26, ptr %27, align 8, !tbaa !4
  store i32 1, ptr %3, align 4
  store i32 1, ptr %8, align 4
  br label %28

28:                                               ; preds = %24, %23
  call void @llvm.lifetime.end.p0(i64 8, ptr %7) #11
  call void @llvm.lifetime.end.p0(i64 8, ptr %6) #11
  %29 = load i32, ptr %3, align 4
  ret i32 %29
}