; Function Attrs: nounwind uwtable
define dso_local range(i32 0, 2) i32 @strbuf_expand_step(ptr noundef captures(none) %0, ptr noundef captures(none) %1) local_unnamed_addr #3 {
  %3 = load ptr, ptr %1, align 8, !tbaa !9
  %4 = tail call ptr @strchrnul(ptr noundef %3, i32 noundef 37) #26
  %5 = ptrtoint ptr %4 to i64
  %6 = ptrtoint ptr %3 to i64
  %7 = sub i64 %5, %6
  tail call void @strbuf_add(ptr noundef %0, ptr noundef %3, i64 noundef %7)
  %8 = load i8, ptr %4, align 1, !tbaa !4
  %.not = icmp eq i8 %8, 0
  br i1 %.not, label %11, label %9

9:                                                ; preds = %2
  %10 = getelementptr inbounds nuw i8, ptr %4, i64 1
  store ptr %10, ptr %1, align 8, !tbaa !9
  br label %11

11:                                               ; preds = %2, %9
  %.0 = phi i32 [ 1, %9 ], [ 0, %2 ]
  ret i32 %.0
}